target datalayout = "e-m:e-p270:32:32-p271:32:32-p272:64:64-i64:64-i128:128-f80:128-n8:16:32:64-S128"
target triple = "x86_64-pc-linux-gnu"

%struct.pg_conn = type { ptr, ptr, ptr, ptr, ptr, ptr, ptr, ptr, ptr, ptr, ptr, ptr, ptr, ptr, ptr, ptr, ptr, ptr, ptr, ptr, ptr, ptr, ptr, ptr, ptr, ptr, ptr, ptr, ptr, ptr, ptr, ptr, ptr, ptr, ptr, ptr, ptr, ptr, ptr, ptr, ptr, ptr, ptr, i8, ptr, i32, %struct.PGNoticeHooks, ptr, i32, i32, i32, i32, i32, [6 x i8], i8, i8, i32, i8, i8, i32, i8, i32, ptr, ptr, i32, i32, ptr, ptr, ptr, ptr, ptr, i32, %struct.SockAddr, %struct.SockAddr, i32, i32, i8, i8, i8, i8, i8, i8, ptr, i8, i32, [1 x ptr], i8, i8, ptr, ptr, i32, i32, i32, i8, i8, i32, i32, ptr, i8, i64, ptr, i64, ptr, i32, i32, ptr, i32, i8, i32, i32, i32, i32, ptr, %struct.pg_prng_state, ptr, i32, i32, i32, i32, ptr, i32, i32, i32, i32, ptr, i32, ptr, i8, ptr, ptr, ptr, i32, i8, i8, i8, i8, i8, i8, i8, i8, %struct.PQExpBufferData, i32, %struct.PQExpBufferData }
%struct.PGNoticeHooks = type { ptr, ptr, ptr, ptr }
%struct.SockAddr = type { %struct.sockaddr_storage, i32 }
%struct.sockaddr_storage = type { i16, [118 x i8], i64 }
%struct.pg_prng_state = type { i64, i64 }
%struct.PQExpBufferData = type { ptr, i64, i64 }

@.str.4 = private unnamed_addr constant [20 x i8] c"connection not open\00", align 1
@.str.5 = private unnamed_addr constant [137 x i8] c"server closed the connection unexpectedly\0A\09This probably means the server terminated abnormally\0A\09before or while processing the request.\00", align 1

; Function Attrs: nounwind uwtable
define i32 @pqReadReady(ptr noundef %0) #0 {
  %2 = alloca ptr, align 8
  store ptr %0, ptr %2, align 8
  %3 = load ptr, ptr %2, align 8
  %4 = call i32 @pqSocketCheck(ptr noundef %3, i32 noundef 1, i32 noundef 0, i64 noundef 0)
  ret i32 %4
}

; Function Attrs: nounwind uwtable
define i32 @pqReadData(ptr noundef %0) #0 {
  %2 = alloca i32, align 4
  %3 = alloca ptr, align 8
  %4 = alloca i32, align 4
  %5 = alloca i32, align 4
  %6 = alloca i32, align 4
  store ptr %0, ptr %3, align 8
  call void @llvm.lifetime.start.p0(i64 4, ptr %4) #10
  store i32 0, ptr %4, align 4
  call void @llvm.lifetime.start.p0(i64 4, ptr %5) #10
  %7 = load ptr, ptr %3, align 8
  %8 = getelementptr inbounds nuw %struct.pg_conn, ptr %7, i32 0, i32 71
  %9 = load i32, ptr %8, align 8
  %10 = icmp eq i32 %9, -1
  br i1 %10, label %11, label %13

11:                                               ; preds = %1
  %12 = load ptr, ptr %3, align 8
  call void (ptr, ptr, ...) @libpq_append_conn_error(ptr noundef %12, ptr noundef @.str.4)
  store i32 -1, ptr %2, align 4
  store i32 1, ptr %6, align 4
  br label %210

13:                                               ; preds = %1
  %14 = load ptr, ptr %3, align 8
  %15 = getelementptr inbounds nuw %struct.pg_conn, ptr %14, i32 0, i32 116
  %16 = load i32, ptr %15, align 4
  %17 = load ptr, ptr %3, align 8
  %18 = getelementptr inbounds nuw %struct.pg_conn, ptr %17, i32 0, i32 118
  %19 = load i32, ptr %18, align 4
  %20 = icmp slt i32 %16, %19
  br i1 %20, label %21, label %63

21:                                               ; preds = %13
  %22 = load ptr, ptr %3, align 8
  %23 = getelementptr inbounds nuw %struct.pg_conn, ptr %22, i32 0, i32 116
  %24 = load i32, ptr %23, align 4
  %25 = icmp sgt i32 %24, 0
  br i1 %25, label %26, label %62

26:                                               ; preds = %21
  %27 = load ptr, ptr %3, align 8
  %28 = getelementptr inbounds nuw %struct.pg_conn, ptr %27, i32 0, i32 114
  %29 = load ptr, ptr %28, align 8
  %30 = load ptr, ptr %3, align 8
  %31 = getelementptr inbounds nuw %struct.pg_conn, ptr %30, i32 0, i32 114
  %32 = load ptr, ptr %31, align 8
  %33 = load ptr, ptr %3, align 8
  %34 = getelementptr inbounds nuw %struct.pg_conn, ptr %33, i32 0, i32 116
  %35 = load i32, ptr %34, align 4
  %36 = sext i32 %35 to i64
  %37 = getelementptr inbounds i8, ptr %32, i64 %36
  %38 = load ptr, ptr %3, align 8
  %39 = getelementptr inbounds nuw %struct.pg_conn, ptr %38, i32 0, i32 118
  %40 = load i32, ptr %39, align 4
  %41 = load ptr, ptr %3, align 8
  %42 = getelementptr inbounds nuw %struct.pg_conn, ptr %41, i32 0, i32 116
  %43 = load i32, ptr %42, align 4
  %44 = sub i32 %40, %43
  %45 = sext i32 %44 to i64
  call void @llvm.memmove.p0.p0.i64(ptr align 1 %29, ptr align 1 %37, i64 %45, i1 false)
  %46 = load ptr, ptr %3, align 8
  %47 = getelementptr inbounds nuw %struct.pg_conn, ptr %46, i32 0, i32 116
  %48 = load i32, ptr %47, align 4
  %49 = load ptr, ptr %3, align 8
  %50 = getelementptr inbounds nuw %struct.pg_conn, ptr %49, i32 0, i32 118
  %51 = load i32, ptr %50, align 4
  %52 = sub i32 %51, %48
  store i32 %52, ptr %50, align 4
  %53 = load ptr, ptr %3, align 8
  %54 = getelementptr inbounds nuw %struct.pg_conn, ptr %53, i32 0, i32 116
  %55 = load i32, ptr %54, align 4
  %56 = load ptr, ptr %3, align 8
  %57 = getelementptr inbounds nuw %struct.pg_conn, ptr %56, i32 0, i32 117
  %58 = load i32, ptr %57, align 8
  %59 = sub i32 %58, %55
  store i32 %59, ptr %57, align 8
  %60 = load ptr, ptr %3, align 8
  %61 = getelementptr inbounds nuw %struct.pg_conn, ptr %60, i32 0, i32 116
  store i32 0, ptr %61, align 4
  br label %62

62:                                               ; preds = %26, %21
  br label %70

63:                                               ; preds = %13
  %64 = load ptr, ptr %3, align 8
  %65 = getelementptr inbounds nuw %struct.pg_conn, ptr %64, i32 0, i32 118
  store i32 0, ptr %65, align 4
  %66 = load ptr, ptr %3, align 8
  %67 = getelementptr inbounds nuw %struct.pg_conn, ptr %66, i32 0, i32 117
  store i32 0, ptr %67, align 8
  %68 = load ptr, ptr %3, align 8
  %69 = getelementptr inbounds nuw %struct.pg_conn, ptr %68, i32 0, i32 116
  store i32 0, ptr %69, align 4
  br label %70

70:                                               ; preds = %63, %62
  %71 = load ptr, ptr %3, align 8
  %72 = getelementptr inbounds nuw %struct.pg_conn, ptr %71, i32 0, i32 115
  %73 = load i32, ptr %72, align 8
  %74 = load ptr, ptr %3, align 8
  %75 = getelementptr inbounds nuw %struct.pg_conn, ptr %74, i32 0, i32 118
  %76 = load i32, ptr %75, align 4
  %77 = sub i32 %73, %76
  %78 = icmp slt i32 %77, 8192
  br i1 %78, label %79, label %100

79:                                               ; preds = %70
  %80 = load ptr, ptr %3, align 8
  %81 = getelementptr inbounds nuw %struct.pg_conn, ptr %80, i32 0, i32 118
  %82 = load i32, ptr %81, align 4
  %83 = sext i32 %82 to i64
  %84 = add i64 %83, 8192
  %85 = load ptr, ptr %3, align 8
  %86 = call i32 @pqCheckInBufferSpace(i64 noundef %84, ptr noundef %85)
  %87 = icmp ne i32 %86, 0
  br i1 %87, label %88, label %99

88:                                               ; preds = %79
  %89 = load ptr, ptr %3, align 8
  %90 = getelementptr inbounds nuw %struct.pg_conn, ptr %89, i32 0, i32 115
  %91 = load i32, ptr %90, align 8
  %92 = load ptr, ptr %3, align 8
  %93 = getelementptr inbounds nuw %struct.pg_conn, ptr %92, i32 0, i32 118
  %94 = load i32, ptr %93, align 4
  %95 = sub i32 %91, %94
  %96 = icmp slt i32 %95, 100
  br i1 %96, label %97, label %98

97:                                               ; preds = %88
  store i32 -1, ptr %2, align 4
  store i32 1, ptr %6, align 4
  br label %210

98:                                               ; preds = %88
  br label %99

99:                                               ; preds = %98, %79
  br label %100

100:                                              ; preds = %99, %70
  br label %101

101:                                              ; preds = %153, %126, %100
  %102 = load ptr, ptr %3, align 8
  %103 = load ptr, ptr %3, align 8
  %104 = getelementptr inbounds nuw %struct.pg_conn, ptr %103, i32 0, i32 114
  %105 = load ptr, ptr %104, align 8
  %106 = load ptr, ptr %3, align 8
  %107 = getelementptr inbounds nuw %struct.pg_conn, ptr %106, i32 0, i32 118
  %108 = load i32, ptr %107, align 4
  %109 = sext i32 %108 to i64
  %110 = getelementptr inbounds i8, ptr %105, i64 %109
  %111 = load ptr, ptr %3, align 8
  %112 = getelementptr inbounds nuw %struct.pg_conn, ptr %111, i32 0, i32 115
  %113 = load i32, ptr %112, align 8
  %114 = load ptr, ptr %3, align 8
  %115 = getelementptr inbounds nuw %struct.pg_conn, ptr %114, i32 0, i32 118
  %116 = load i32, ptr %115, align 4
  %117 = sub i32 %113, %116
  %118 = sext i32 %117 to i64
  %119 = call i64 @pqsecure_read(ptr noundef %102, ptr noundef %110, i64 noundef %118)
  %120 = trunc i64 %119 to i32
  store i32 %120, ptr %5, align 4
  %121 = load i32, ptr %5, align 4
  %122 = icmp slt i32 %121, 0
  br i1 %122, label %123, label %131

123:                                              ; preds = %101
  %124 = call ptr @__errno_location() #13
  %125 = load i32, ptr %124, align 4
  switch i32 %125, label %130 [
    i32 4, label %126
    i32 11, label %127
    i32 32, label %129
    i32 104, label %129
    i32 103, label %129
    i32 112, label %129
    i32 113, label %129
    i32 100, label %129
    i32 102, label %129
    i32 101, label %129
    i32 110, label %129
  ]

126:                                              ; preds = %123
  br label %101

127:                                              ; preds = %123
  %128 = load i32, ptr %4, align 4
  store i32 %128, ptr %2, align 4
  store i32 1, ptr %6, align 4
  br label %210

129:                                              ; preds = %123, %123, %123, %123, %123, %123, %123, %123, %123
  br label %206

130:                                              ; preds = %123
  store i32 -1, ptr %2, align 4
  store i32 1, ptr %6, align 4
  br label %210

131:                                              ; preds = %101
  %132 = load i32, ptr %5, align 4
  %133 = icmp sgt i32 %132, 0
  br i1 %133, label %134, label %155

134:                                              ; preds = %131
  %135 = load i32, ptr %5, align 4
  %136 = load ptr, ptr %3, align 8
  %137 = getelementptr inbounds nuw %struct.pg_conn, ptr %136, i32 0, i32 118
  %138 = load i32, ptr %137, align 4
  %139 = add i32 %138, %135
  store i32 %139, ptr %137, align 4
  %140 = load ptr, ptr %3, align 8
  %141 = getelementptr inbounds nuw %struct.pg_conn, ptr %140, i32 0, i32 118
  %142 = load i32, ptr %141, align 4
  %143 = icmp sgt i32 %142, 32768
  br i1 %143, label %144, label %154

144:                                              ; preds = %134
  %145 = load ptr, ptr %3, align 8
  %146 = getelementptr inbounds nuw %struct.pg_conn, ptr %145, i32 0, i32 115
  %147 = load i32, ptr %146, align 8
  %148 = load ptr, ptr %3, align 8
  %149 = getelementptr inbounds nuw %struct.pg_conn, ptr %148, i32 0, i32 118
  %150 = load i32, ptr %149, align 4
  %151 = sub i32 %147, %150
  %152 = icmp sge i32 %151, 8192
  br i1 %152, label %153, label %154

153:                                              ; preds = %144
  store i32 1, ptr %4, align 4
  br label %101

154:                                              ; preds = %144, %134
  store i32 1, ptr %2, align 4
  store i32 1, ptr %6, align 4
  br label %210

155:                                              ; preds = %131
  %156 = load i32, ptr %4, align 4
  %157 = icmp ne i32 %156, 0
  br i1 %157, label %158, label %159

158:                                              ; preds = %155
  store i32 1, ptr %2, align 4
  store i32 1, ptr %6, align 4
  br label %210

159:                                              ; preds = %155
  %160 = load ptr, ptr %3, align 8
  %161 = call i32 @pqReadReady(ptr noundef %160)
  switch i32 %161, label %163 [
    i32 0, label %162
    i32 1, label %164
  ]

162:                                              ; preds = %159
  store i32 0, ptr %2, align 4
  store i32 1, ptr %6, align 4
  br label %210

163:                                              ; preds = %159
  br label %204

164:                                              ; preds = %159
  br label %165

165:                                              ; preds = %190, %164
  %166 = load ptr, ptr %3, align 8
  %167 = load ptr, ptr %3, align 8
  %168 = getelementptr inbounds nuw %struct.pg_conn, ptr %167, i32 0, i32 114
  %169 = load ptr, ptr %168, align 8
  %170 = load ptr, ptr %3, align 8
  %171 = getelementptr inbounds nuw %struct.pg_conn, ptr %170, i32 0, i32 118
  %172 = load i32, ptr %171, align 4
  %173 = sext i32 %172 to i64
  %174 = getelementptr inbounds i8, ptr %169, i64 %173
  %175 = load ptr, ptr %3, align 8
  %176 = getelementptr inbounds nuw %struct.pg_conn, ptr %175, i32 0, i32 115
  %177 = load i32, ptr %176, align 8
  %178 = load ptr, ptr %3, align 8
  %179 = getelementptr inbounds nuw %struct.pg_conn, ptr %178, i32 0, i32 118
  %180 = load i32, ptr %179, align 4
  %181 = sub i32 %177, %180
  %182 = sext i32 %181 to i64
  %183 = call i64 @pqsecure_read(ptr noundef %166, ptr noundef %174, i64 noundef %182)
  %184 = trunc i64 %183 to i32
  store i32 %184, ptr %5, align 4
  %185 = load i32, ptr %5, align 4
  %186 = icmp slt i32 %185, 0
  br i1 %186, label %187, label %194

187:                                              ; preds = %165
  %188 = call ptr @__errno_location() #13
  %189 = load i32, ptr %188, align 4
  switch i32 %189, label %193 [
    i32 4, label %190
    i32 11, label %191
    i32 32, label %192
    i32 104, label %192
    i32 103, label %192
    i32 112, label %192
    i32 113, label %192
    i32 100, label %192
    i32 102, label %192
    i32 101, label %192
    i32 110, label %192
  ]

190:                                              ; preds = %187
  br label %165

191:                                              ; preds = %187
  store i32 0, ptr %2, align 4
  store i32 1, ptr %6, align 4
  br label %210

192:                                              ; preds = %187, %187, %187, %187, %187, %187, %187, %187, %187
  br label %206

193:                                              ; preds = %187
  store i32 -1, ptr %2, align 4
  store i32 1, ptr %6, align 4
  br label %210

194:                                              ; preds = %165
  %195 = load i32, ptr %5, align 4
  %196 = icmp sgt i32 %195, 0
  br i1 %196, label %197, label %203

197:                                              ; preds = %194
  %198 = load i32, ptr %5, align 4
  %199 = load ptr, ptr %3, align 8
  %200 = getelementptr inbounds nuw %struct.pg_conn, ptr %199, i32 0, i32 118
  %201 = load i32, ptr %200, align 4
  %202 = add i32 %201, %198
  store i32 %202, ptr %200, align 4
  store i32 1, ptr %2, align 4
  store i32 1, ptr %6, align 4
  br label %210

203:                                              ; preds = %194
  br label %204

204:                                              ; preds = %203, %163
  %205 = load ptr, ptr %3, align 8
  call void (ptr, ptr, ...) @libpq_append_conn_error(ptr noundef %205, ptr noundef @.str.5)
  br label %206

206:                                              ; preds = %204, %192, %129
  %207 = load ptr, ptr %3, align 8
  call void @pqDropConnection(ptr noundef %207, i1 noundef zeroext false)
  %208 = load ptr, ptr %3, align 8
  %209 = getelementptr inbounds nuw %struct.pg_conn, ptr %208, i32 0, i32 50
  store i32 1, ptr %209, align 8
  store i32 -1, ptr %2, align 4
  store i32 1, ptr %6, align 4
  br label %210

210:                                              ; preds = %206, %197, %193, %191, %162, %158, %154, %130, %127, %97, %11
  call void @llvm.lifetime.end.p0(i64 4, ptr %5) #10
  call void @llvm.lifetime.end.p0(i64 4, ptr %4) #10
  %211 = load i32, ptr %2, align 4
  ret i32 %211
}