; Function Attrs: nounwind uwtable
define range(i32 -1, 2) i32 @pqReadData(ptr noundef %0) local_unnamed_addr #2 {
  %2 = getelementptr inbounds nuw i8, ptr %0, i64 520
  %3 = load i32, ptr %2, align 8
  %4 = icmp eq i32 %3, -1
  br i1 %4, label %5, label %6

5:                                                ; preds = %1
  tail call void (ptr, ptr, ...) @libpq_append_conn_error(ptr noundef nonnull %0, ptr noundef nonnull @.str.4)
  br label %.loopexit

6:                                                ; preds = %1
  %7 = getelementptr inbounds nuw i8, ptr %0, i64 1012
  %8 = load i32, ptr %7, align 4
  %9 = getelementptr inbounds nuw i8, ptr %0, i64 1020
  %10 = load i32, ptr %9, align 4
  %11 = icmp slt i32 %8, %10
  br i1 %11, label %12, label %27

12:                                               ; preds = %6
  %13 = icmp sgt i32 %8, 0
  br i1 %13, label %14, label %29

14:                                               ; preds = %12
  %15 = getelementptr inbounds nuw i8, ptr %0, i64 1000
  %16 = load ptr, ptr %15, align 8
  %17 = zext nneg i32 %8 to i64
  %18 = getelementptr inbounds nuw i8, ptr %16, i64 %17
  %19 = sub i32 %10, %8
  %20 = sext i32 %19 to i64
  tail call void @llvm.memmove.p0.p0.i64(ptr align 1 %16, ptr nonnull align 1 %18, i64 %20, i1 false)
  %21 = load i32, ptr %7, align 4
  %22 = load i32, ptr %9, align 4
  %23 = sub i32 %22, %21
  store i32 %23, ptr %9, align 4
  %24 = getelementptr inbounds nuw i8, ptr %0, i64 1016
  %25 = load i32, ptr %24, align 8
  %26 = sub i32 %25, %21
  store i32 %26, ptr %24, align 8
  br label %.sink.split

27:                                               ; preds = %6
  store i32 0, ptr %9, align 4
  %28 = getelementptr inbounds nuw i8, ptr %0, i64 1016
  store i32 0, ptr %28, align 8
  br label %.sink.split

.sink.split:                                      ; preds = %27, %14
  %.ph = phi i32 [ 0, %27 ], [ %23, %14 ]
  store i32 0, ptr %7, align 4
  br label %29

29:                                               ; preds = %.sink.split, %12
  %30 = phi i32 [ %10, %12 ], [ %.ph, %.sink.split ]
  %31 = getelementptr inbounds nuw i8, ptr %0, i64 1008
  %32 = load i32, ptr %31, align 8
  %33 = sub i32 %32, %30
  %34 = icmp slt i32 %33, 8192
  br i1 %34, label %35, label %44

35:                                               ; preds = %29
  %36 = sext i32 %30 to i64
  %37 = add nsw i64 %36, 8192
  %38 = tail call i32 @pqCheckInBufferSpace(i64 noundef %37, ptr noundef nonnull %0)
  %.not = icmp eq i32 %38, 0
  br i1 %.not, label %44, label %39

39:                                               ; preds = %35
  %40 = load i32, ptr %31, align 8
  %41 = load i32, ptr %9, align 4
  %42 = sub i32 %40, %41
  %43 = icmp slt i32 %42, 100
  br i1 %43, label %.loopexit, label %44

44:                                               ; preds = %35, %39, %29
  %45 = getelementptr inbounds nuw i8, ptr %0, i64 1000
  br label %.outer

.outer:                                           ; preds = %65, %44
  %.not58 = phi i1 [ false, %65 ], [ true, %44 ]
  %.0.ph = phi i32 [ 1, %65 ], [ 0, %44 ]
  br label %46

46:                                               ; preds = %.outer, %57
  %47 = load ptr, ptr %45, align 8
  %48 = load i32, ptr %9, align 4
  %49 = sext i32 %48 to i64
  %50 = getelementptr inbounds i8, ptr %47, i64 %49
  %51 = load i32, ptr %31, align 8
  %52 = sub i32 %51, %48
  %53 = sext i32 %52 to i64
  %54 = tail call i64 @pqsecure_read(ptr noundef nonnull %0, ptr noundef %50, i64 noundef %53) #19
  %55 = trunc i64 %54 to i32
  %56 = icmp slt i32 %55, 0
  br i1 %56, label %57, label %60

57:                                               ; preds = %46
  %58 = tail call ptr @__errno_location() #21
  %59 = load i32, ptr %58, align 4
  switch i32 %59, label %.loopexit [
    i32 4, label %46
    i32 11, label %.loopexit.loopexit139
    i32 32, label %.loopexit60
    i32 104, label %.loopexit60
    i32 103, label %.loopexit60
    i32 112, label %.loopexit60
    i32 113, label %.loopexit60
    i32 100, label %.loopexit60
    i32 102, label %.loopexit60
    i32 101, label %.loopexit60
    i32 110, label %.loopexit60
  ]

60:                                               ; preds = %46
  %.not57 = icmp eq i32 %55, 0
  br i1 %.not57, label %69, label %61

61:                                               ; preds = %60
  %62 = load i32, ptr %9, align 4
  %63 = add i32 %62, %55
  store i32 %63, ptr %9, align 4
  %64 = icmp sgt i32 %63, 32768
  br i1 %64, label %65, label %.loopexit

65:                                               ; preds = %61
  %66 = load i32, ptr %31, align 8
  %67 = sub i32 %66, %63
  %68 = icmp sgt i32 %67, 8191
  br i1 %68, label %.outer, label %.loopexit

69:                                               ; preds = %60
  br i1 %.not58, label %70, label %.loopexit

70:                                               ; preds = %69
  %71 = tail call fastcc i32 @pqSocketCheck(ptr noundef nonnull %0, i32 noundef 1, i32 noundef 0, i64 noundef 0)
  switch i32 %71, label %89 [
    i32 0, label %.loopexit
    i32 1, label %.preheader
  ]

.preheader:                                       ; preds = %70, %82
  %72 = load ptr, ptr %45, align 8
  %73 = load i32, ptr %9, align 4
  %74 = sext i32 %73 to i64
  %75 = getelementptr inbounds i8, ptr %72, i64 %74
  %76 = load i32, ptr %31, align 8
  %77 = sub i32 %76, %73
  %78 = sext i32 %77 to i64
  %79 = tail call i64 @pqsecure_read(ptr noundef nonnull %0, ptr noundef %75, i64 noundef %78) #19
  %80 = trunc i64 %79 to i32
  %81 = icmp slt i32 %80, 0
  br i1 %81, label %82, label %85

82:                                               ; preds = %.preheader
  %83 = tail call ptr @__errno_location() #21
  %84 = load i32, ptr %83, align 4
  switch i32 %84, label %.loopexit [
    i32 4, label %.preheader
    i32 11, label %.loopexit.loopexit
    i32 32, label %.loopexit60
    i32 104, label %.loopexit60
    i32 103, label %.loopexit60
    i32 112, label %.loopexit60
    i32 113, label %.loopexit60
    i32 100, label %.loopexit60
    i32 102, label %.loopexit60
    i32 101, label %.loopexit60
    i32 110, label %.loopexit60
  ]

85:                                               ; preds = %.preheader
  %.not59 = icmp eq i32 %80, 0
  br i1 %.not59, label %89, label %86

86:                                               ; preds = %85
  %87 = load i32, ptr %9, align 4
  %88 = add i32 %87, %80
  store i32 %88, ptr %9, align 4
  br label %.loopexit

89:                                               ; preds = %85, %70
  tail call void (ptr, ptr, ...) @libpq_append_conn_error(ptr noundef nonnull %0, ptr noundef nonnull @.str.5)
  br label %.loopexit60

.loopexit60:                                      ; preds = %57, %57, %57, %57, %57, %57, %57, %57, %57, %82, %82, %82, %82, %82, %82, %82, %82, %82, %89
  tail call void @pqDropConnection(ptr noundef nonnull %0, i1 noundef zeroext false) #19
  %90 = getelementptr inbounds nuw i8, ptr %0, i64 416
  store i32 1, ptr %90, align 8
  br label %.loopexit

.loopexit.loopexit:                               ; preds = %82
  br label %.loopexit

.loopexit.loopexit139:                            ; preds = %57
  br label %.loopexit

.loopexit:                                        ; preds = %61, %65, %57, %82, %.loopexit.loopexit139, %.loopexit.loopexit, %70, %69, %39, %.loopexit60, %86, %5
  %.051 = phi i32 [ -1, %5 ], [ -1, %.loopexit60 ], [ 1, %86 ], [ -1, %39 ], [ 1, %69 ], [ %71, %70 ], [ 0, %.loopexit.loopexit ], [ %.0.ph, %.loopexit.loopexit139 ], [ -1, %82 ], [ -1, %57 ], [ 1, %65 ], [ 1, %61 ]
  ret i32 %.051
}